; Function Attrs: nounwind uwtable
define hidden void @X11_SetWindowTitle(ptr noundef readnone captures(none) %0, ptr noundef readonly captures(none) %1) local_unnamed_addr #0 {
  %3 = getelementptr inbounds nuw i8, ptr %1, i64 392
  %4 = load ptr, ptr %3, align 8
  %5 = getelementptr inbounds nuw i8, ptr %4, i64 8
  %6 = load i64, ptr %5, align 8
  %7 = getelementptr inbounds nuw i8, ptr %4, i64 336
  %8 = load ptr, ptr %7, align 8
  %9 = load ptr, ptr %8, align 8
  %10 = getelementptr inbounds nuw i8, ptr %1, i64 8
  %11 = load ptr, ptr %10, align 8
  %.not = icmp eq ptr %11, null
  %spec.select = select i1 %.not, ptr @.str.22, ptr %11
  %12 = tail call zeroext i1 @SDL_X11_SetWindowTitle(ptr noundef %9, i64 noundef %6, ptr noundef nonnull %spec.select)
  ret void
}